; Function Attrs: mustprogress nofree norecurse nosync nounwind willreturn memory(read, inaccessiblemem: none) uwtable
define hidden noundef zeroext i1 @_ZNK19OpenColorIO_v2_4dev11GammaOpData21areAllComponentsEqualEv(ptr nocapture noundef nonnull readonly align 8 dereferenceable(272) %this) local_unnamed_addr #7 align 2 {
entry:
  %m_redParams = getelementptr inbounds i8, ptr %this, i64 176
  %m_greenParams = getelementptr inbounds i8, ptr %this, i64 200
  %_M_finish.i.i = getelementptr inbounds i8, ptr %this, i64 184
  %0 = load ptr, ptr %_M_finish.i.i, align 8
  %1 = load ptr, ptr %m_redParams, align 8
  %sub.ptr.lhs.cast.i.i = ptrtoint ptr %0 to i64
  %sub.ptr.rhs.cast.i.i = ptrtoint ptr %1 to i64
  %sub.ptr.sub.i.i = sub i64 %sub.ptr.lhs.cast.i.i, %sub.ptr.rhs.cast.i.i
  %_M_finish.i4.i = getelementptr inbounds i8, ptr %this, i64 208
  %2 = load ptr, ptr %_M_finish.i4.i, align 8
  %3 = load ptr, ptr %m_greenParams, align 8
  %sub.ptr.lhs.cast.i5.i = ptrtoint ptr %2 to i64
  %sub.ptr.rhs.cast.i6.i = ptrtoint ptr %3 to i64
  %sub.ptr.sub.i7.i = sub i64 %sub.ptr.lhs.cast.i5.i, %sub.ptr.rhs.cast.i6.i
  %cmp.i = icmp eq i64 %sub.ptr.sub.i.i, %sub.ptr.sub.i7.i
  br i1 %cmp.i, label %land.rhs.i, label %land.end

land.rhs.i:                                       ; preds = %entry
  %cmp.not4.i.i.i.i.i = icmp eq ptr %1, %0
  br i1 %cmp.not4.i.i.i.i.i, label %land.lhs.true.thread, label %for.body.i.i.i.i.i

for.body.i.i.i.i.i:                               ; preds = %land.rhs.i, %for.inc.i.i.i.i.i
  %__first2.addr.06.i.i.i.i.i = phi ptr [ %incdec.ptr2.i.i.i.i.i, %for.inc.i.i.i.i.i ], [ %3, %land.rhs.i ]
  %__first1.addr.05.i.i.i.i.i = phi ptr [ %incdec.ptr.i.i.i.i.i, %for.inc.i.i.i.i.i ], [ %1, %land.rhs.i ]
  %4 = load double, ptr %__first1.addr.05.i.i.i.i.i, align 8
  %5 = load double, ptr %__first2.addr.06.i.i.i.i.i, align 8
  %cmp1.i.i.i.i.i = fcmp oeq double %4, %5
  br i1 %cmp1.i.i.i.i.i, label %for.inc.i.i.i.i.i, label %land.end

for.inc.i.i.i.i.i:                                ; preds = %for.body.i.i.i.i.i
  %incdec.ptr.i.i.i.i.i = getelementptr inbounds i8, ptr %__first1.addr.05.i.i.i.i.i, i64 8
  %incdec.ptr2.i.i.i.i.i = getelementptr inbounds i8, ptr %__first2.addr.06.i.i.i.i.i, i64 8
  %cmp.not.i.i.i.i.i = icmp eq ptr %incdec.ptr.i.i.i.i.i, %0
  br i1 %cmp.not.i.i.i.i.i, label %land.lhs.true, label %for.body.i.i.i.i.i, !llvm.loop !26

land.lhs.true:                                    ; preds = %for.inc.i.i.i.i.i
  %m_blueParams = getelementptr inbounds i8, ptr %this, i64 224
  %_M_finish.i4.i5 = getelementptr inbounds i8, ptr %this, i64 232
  %6 = load ptr, ptr %_M_finish.i4.i5, align 8
  %7 = load ptr, ptr %m_blueParams, align 8
  %sub.ptr.lhs.cast.i5.i6 = ptrtoint ptr %6 to i64
  %sub.ptr.rhs.cast.i6.i7 = ptrtoint ptr %7 to i64
  %sub.ptr.sub.i7.i8 = sub i64 %sub.ptr.lhs.cast.i5.i6, %sub.ptr.rhs.cast.i6.i7
  %cmp.i9 = icmp eq i64 %sub.ptr.sub.i.i, %sub.ptr.sub.i7.i8
  br i1 %cmp.i9, label %land.rhs.i10, label %land.end

land.lhs.true.thread:                             ; preds = %land.rhs.i
  %m_blueParams45 = getelementptr inbounds i8, ptr %this, i64 224
  %_M_finish.i4.i546 = getelementptr inbounds i8, ptr %this, i64 232
  %8 = load ptr, ptr %_M_finish.i4.i546, align 8
  %9 = load ptr, ptr %m_blueParams45, align 8
  %sub.ptr.lhs.cast.i5.i647 = ptrtoint ptr %8 to i64
  %sub.ptr.rhs.cast.i6.i748 = ptrtoint ptr %9 to i64
  %sub.ptr.sub.i7.i849 = sub i64 %sub.ptr.lhs.cast.i5.i647, %sub.ptr.rhs.cast.i6.i748
  %cmp.i950 = icmp eq i64 %sub.ptr.sub.i.i, %sub.ptr.sub.i7.i849
  br i1 %cmp.i950, label %land.rhs, label %land.end

land.rhs.i10:                                     ; preds = %land.lhs.true
  br i1 %cmp.not4.i.i.i.i.i, label %land.rhs, label %for.body.i.i.i.i.i12

for.body.i.i.i.i.i12:                             ; preds = %land.rhs.i10, %for.inc.i.i.i.i.i16
  %__first2.addr.06.i.i.i.i.i13 = phi ptr [ %incdec.ptr2.i.i.i.i.i18, %for.inc.i.i.i.i.i16 ], [ %7, %land.rhs.i10 ]
  %__first1.addr.05.i.i.i.i.i14 = phi ptr [ %incdec.ptr.i.i.i.i.i17, %for.inc.i.i.i.i.i16 ], [ %1, %land.rhs.i10 ]
  %10 = load double, ptr %__first1.addr.05.i.i.i.i.i14, align 8
  %11 = load double, ptr %__first2.addr.06.i.i.i.i.i13, align 8
  %cmp1.i.i.i.i.i15 = fcmp oeq double %10, %11
  br i1 %cmp1.i.i.i.i.i15, label %for.inc.i.i.i.i.i16, label %land.end

for.inc.i.i.i.i.i16:                              ; preds = %for.body.i.i.i.i.i12
  %incdec.ptr.i.i.i.i.i17 = getelementptr inbounds i8, ptr %__first1.addr.05.i.i.i.i.i14, i64 8
  %incdec.ptr2.i.i.i.i.i18 = getelementptr inbounds i8, ptr %__first2.addr.06.i.i.i.i.i13, i64 8
  %cmp.not.i.i.i.i.i19 = icmp eq ptr %incdec.ptr.i.i.i.i.i17, %0
  br i1 %cmp.not.i.i.i.i.i19, label %land.rhs, label %for.body.i.i.i.i.i12, !llvm.loop !26

land.rhs:                                         ; preds = %for.inc.i.i.i.i.i16, %land.lhs.true.thread, %land.rhs.i10
  %m_alphaParams = getelementptr inbounds i8, ptr %this, i64 248
  %_M_finish.i4.i25 = getelementptr inbounds i8, ptr %this, i64 256
  %12 = load ptr, ptr %_M_finish.i4.i25, align 8
  %13 = load ptr, ptr %m_alphaParams, align 8
  %sub.ptr.lhs.cast.i5.i26 = ptrtoint ptr %12 to i64
  %sub.ptr.rhs.cast.i6.i27 = ptrtoint ptr %13 to i64
  %sub.ptr.sub.i7.i28 = sub i64 %sub.ptr.lhs.cast.i5.i26, %sub.ptr.rhs.cast.i6.i27
  %cmp.i29 = icmp ne i64 %sub.ptr.sub.i.i, %sub.ptr.sub.i7.i28
  %brmerge = or i1 %cmp.i29, %cmp.not4.i.i.i.i.i
  %not.cmp.i29 = xor i1 %cmp.i29, true
  br i1 %brmerge, label %land.end, label %for.body.i.i.i.i.i32

for.body.i.i.i.i.i32:                             ; preds = %land.rhs, %for.body.i.i.i.i.i32
  %__first2.addr.06.i.i.i.i.i33 = phi ptr [ %incdec.ptr2.i.i.i.i.i38, %for.body.i.i.i.i.i32 ], [ %13, %land.rhs ]
  %__first1.addr.05.i.i.i.i.i34 = phi ptr [ %incdec.ptr.i.i.i.i.i37, %for.body.i.i.i.i.i32 ], [ %1, %land.rhs ]
  %14 = load double, ptr %__first1.addr.05.i.i.i.i.i34, align 8
  %15 = load double, ptr %__first2.addr.06.i.i.i.i.i33, align 8
  %cmp1.i.i.i.i.i35 = fcmp oeq double %14, %15
  %incdec.ptr.i.i.i.i.i37 = getelementptr inbounds i8, ptr %__first1.addr.05.i.i.i.i.i34, i64 8
  %incdec.ptr2.i.i.i.i.i38 = getelementptr inbounds i8, ptr %__first2.addr.06.i.i.i.i.i33, i64 8
  %cmp.not.i.i.i.i.i39 = icmp ne ptr %incdec.ptr.i.i.i.i.i37, %0
  %or.cond.not = select i1 %cmp1.i.i.i.i.i35, i1 %cmp.not.i.i.i.i.i39, i1 false
  br i1 %or.cond.not, label %for.body.i.i.i.i.i32, label %land.end, !llvm.loop !26

land.end:                                         ; preds = %for.body.i.i.i.i.i, %for.body.i.i.i.i.i12, %for.body.i.i.i.i.i32, %land.rhs, %land.lhs.true.thread, %land.lhs.true, %entry
  %16 = phi i1 [ false, %entry ], [ false, %land.lhs.true ], [ %not.cmp.i29, %land.rhs ], [ false, %land.lhs.true.thread ], [ %cmp1.i.i.i.i.i35, %for.body.i.i.i.i.i32 ], [ false, %for.body.i.i.i.i.i12 ], [ false, %for.body.i.i.i.i.i ]
  ret i1 %16
}